; Function Attrs: nounwind uwtable
define dso_local range(i32 0, 2) i32 @git_configset_get_bool(ptr noundef %0, ptr noundef %1, ptr noundef writeonly captures(none) %2) local_unnamed_addr #0 {
  %4 = alloca %struct.config_set_element, align 8
  %5 = alloca ptr, align 8
  call void @llvm.lifetime.start.p0(i64 64, ptr nonnull %4) #30
  call void @llvm.lifetime.start.p0(i64 8, ptr nonnull %5) #30
  %6 = call i32 @git_config_parse_key(ptr noundef %1, ptr noundef nonnull %5, ptr noundef null)
  %.not.i.i.i = icmp eq i32 %6, 0
  br i1 %.not.i.i.i, label %7, label %configset_find_element.exit.i.i

configset_find_element.exit.i.i:                  ; preds = %3
  call void @llvm.lifetime.end.p0(i64 8, ptr nonnull %5) #30
  call void @llvm.lifetime.end.p0(i64 64, ptr nonnull %4) #30
  br label %git_configset_get_value.exit.thread

7:                                                ; preds = %3
  %8 = load ptr, ptr %5, align 8, !tbaa !17
  %9 = tail call i32 @strhash(ptr noundef %8) #30
  %10 = getelementptr inbounds nuw i8, ptr %4, i64 8
  store i32 %9, ptr %10, align 8, !tbaa !114
  store ptr null, ptr %4, align 8, !tbaa !115
  %11 = getelementptr inbounds nuw i8, ptr %4, i64 16
  store ptr %8, ptr %11, align 8, !tbaa !108
  %12 = call ptr @hashmap_get(ptr noundef %0, ptr noundef nonnull %4, ptr noundef null) #30
  call void @free(ptr noundef %8) #30
  call void @llvm.lifetime.end.p0(i64 8, ptr nonnull %5) #30
  call void @llvm.lifetime.end.p0(i64 64, ptr nonnull %4) #30
  %.not6.i.i = icmp eq ptr %12, null
  br i1 %.not6.i.i, label %git_configset_get_value.exit.thread, label %13

13:                                               ; preds = %7
  %14 = getelementptr inbounds nuw i8, ptr %12, i64 24
  %15 = load ptr, ptr %14, align 8, !tbaa !97
  %16 = getelementptr inbounds nuw i8, ptr %12, i64 32
  %17 = load i64, ptr %16, align 8, !tbaa !100
  %18 = getelementptr %struct.string_list_item, ptr %15, i64 %17
  %19 = getelementptr i8, ptr %18, i64 -16
  %.sroa.0.0.copyload.i = load ptr, ptr %19, align 8, !tbaa !17
  %20 = call i32 @git_parse_maybe_bool(ptr noundef %.sroa.0.0.copyload.i) #30
  %21 = icmp slt i32 %20, 0
  br i1 %21, label %22, label %git_config_bool.exit

22:                                               ; preds = %13
  %23 = call fastcc ptr @_(ptr noundef nonnull @.str.17)
  call void (ptr, ...) @die(ptr noundef %23, ptr noundef %.sroa.0.0.copyload.i, ptr noundef %1) #31
  unreachable

git_config_bool.exit:                             ; preds = %13
  store i32 %20, ptr %2, align 4, !tbaa !14
  br label %git_configset_get_value.exit.thread

git_configset_get_value.exit.thread:              ; preds = %configset_find_element.exit.i.i, %7, %git_config_bool.exit
  %.0 = phi i32 [ 0, %git_config_bool.exit ], [ 1, %7 ], [ 1, %configset_find_element.exit.i.i ]
  ret i32 %.0
}